; Function Attrs: mustprogress uwtable
define hidden void @_ZNK6Assimp7Blender9Structure7ConvertINS0_8MTexPolyEEEvRT_RKNS0_12FileDatabaseE(ptr noundef nonnull align 8 dereferenceable(120) %0, ptr noundef nonnull align 8 dereferenceable(32) %1, ptr noundef nonnull align 8 dereferenceable(232) %2) local_unnamed_addr #0 align 2 personality ptr @__gxx_personality_v0 {
  %4 = alloca %"class.std::shared_ptr.65", align 8
  call void @llvm.lifetime.start.p0(i64 16, ptr nonnull %4) #23
  call void @llvm.memset.p0.i64(ptr noundef nonnull align 8 dereferenceable(16) %4, i8 0, i64 16, i1 false)
  %5 = invoke noundef zeroext i1 @_ZNK6Assimp7Blender9Structure12ReadFieldPtrILi0ESt10shared_ptrNS0_5ImageEEEbRT0_IT1_EPKcRKNS0_12FileDatabaseEb(ptr noundef nonnull align 8 dereferenceable(120) %0, ptr noundef nonnull align 8 dereferenceable(16) %4, ptr noundef nonnull @.str.183, ptr noundef nonnull align 8 dereferenceable(232) %2, i1 noundef zeroext false)
          to label %6 unwind label %52

6:                                                ; preds = %3
  %7 = load ptr, ptr %4, align 8
  %8 = getelementptr inbounds nuw i8, ptr %1, i64 16
  store ptr %7, ptr %8, align 8
  %9 = getelementptr inbounds nuw i8, ptr %4, i64 8
  %10 = load ptr, ptr %9, align 8
  %.not.i.i = icmp eq ptr %10, null
  br i1 %.not.i.i, label %_ZNSt12__shared_ptrIN6Assimp7Blender5ImageELN9__gnu_cxx12_Lock_policyE2EED2Ev.exit, label %11

11:                                               ; preds = %6
  %12 = getelementptr inbounds nuw i8, ptr %10, i64 8
  %13 = load atomic i64, ptr %12 acquire, align 8
  %14 = icmp eq i64 %13, 4294967297
  %15 = trunc i64 %13 to i32
  br i1 %14, label %16, label %24

16:                                               ; preds = %11
  store i32 0, ptr %12, align 8
  %17 = getelementptr inbounds nuw i8, ptr %10, i64 12
  store i32 0, ptr %17, align 4
  %18 = load ptr, ptr %10, align 8
  %19 = getelementptr inbounds nuw i8, ptr %18, i64 16
  %20 = load ptr, ptr %19, align 8
  call void %20(ptr noundef nonnull align 8 dereferenceable(16) %10) #23
  %21 = load ptr, ptr %10, align 8
  %22 = getelementptr inbounds nuw i8, ptr %21, i64 24
  %23 = load ptr, ptr %22, align 8
  call void %23(ptr noundef nonnull align 8 dereferenceable(16) %10) #23
  br label %_ZNSt12__shared_ptrIN6Assimp7Blender5ImageELN9__gnu_cxx12_Lock_policyE2EED2Ev.exit

24:                                               ; preds = %11
  %25 = load i8, ptr @__libc_single_threaded, align 1
  %.not.i.i.i = icmp eq i8 %25, 0
  br i1 %.not.i.i.i, label %28, label %26

26:                                               ; preds = %24
  %27 = add nsw i32 %15, -1
  store i32 %27, ptr %12, align 4
  br label %_ZN9__gnu_cxx27__exchange_and_add_dispatchEPii.exit.i.i.i

28:                                               ; preds = %24
  %29 = atomicrmw volatile add ptr %12, i32 -1 acq_rel, align 4
  br label %_ZN9__gnu_cxx27__exchange_and_add_dispatchEPii.exit.i.i.i

_ZN9__gnu_cxx27__exchange_and_add_dispatchEPii.exit.i.i.i: ; preds = %28, %26
  %.0.i.i.i.i = phi i32 [ %15, %26 ], [ %29, %28 ]
  %30 = icmp eq i32 %.0.i.i.i.i, 1
  br i1 %30, label %31, label %_ZNSt12__shared_ptrIN6Assimp7Blender5ImageELN9__gnu_cxx12_Lock_policyE2EED2Ev.exit, !prof !3

31:                                               ; preds = %_ZN9__gnu_cxx27__exchange_and_add_dispatchEPii.exit.i.i.i
  call void @_ZNSt16_Sp_counted_baseILN9__gnu_cxx12_Lock_policyE2EE24_M_release_last_use_coldEv(ptr noundef nonnull align 8 dereferenceable(16) %10) #23
  br label %_ZNSt12__shared_ptrIN6Assimp7Blender5ImageELN9__gnu_cxx12_Lock_policyE2EED2Ev.exit

_ZNSt12__shared_ptrIN6Assimp7Blender5ImageELN9__gnu_cxx12_Lock_policyE2EED2Ev.exit: ; preds = %6, %16, %_ZN9__gnu_cxx27__exchange_and_add_dispatchEPii.exit.i.i.i, %31
  call void @llvm.lifetime.end.p0(i64 16, ptr nonnull %4) #23
  %32 = getelementptr inbounds nuw i8, ptr %1, i64 24
  call void @_ZNK6Assimp7Blender9Structure9ReadFieldILi0EcEEvRT0_PKcRKNS0_12FileDatabaseE(ptr noundef nonnull align 8 dereferenceable(120) %0, ptr noundef nonnull align 1 dereferenceable(1) %32, ptr noundef nonnull @.str.51, ptr noundef nonnull align 8 dereferenceable(232) %2)
  %33 = getelementptr inbounds nuw i8, ptr %1, i64 25
  call void @_ZNK6Assimp7Blender9Structure9ReadFieldILi0EcEEvRT0_PKcRKNS0_12FileDatabaseE(ptr noundef nonnull align 8 dereferenceable(120) %0, ptr noundef nonnull align 1 dereferenceable(1) %33, ptr noundef nonnull @.str.184, ptr noundef nonnull align 8 dereferenceable(232) %2)
  %34 = getelementptr inbounds nuw i8, ptr %1, i64 26
  call void @_ZNK6Assimp7Blender9Structure9ReadFieldILi0EsEEvRT0_PKcRKNS0_12FileDatabaseE(ptr noundef nonnull align 8 dereferenceable(120) %0, ptr noundef nonnull align 2 dereferenceable(2) %34, ptr noundef nonnull @.str.52, ptr noundef nonnull align 8 dereferenceable(232) %2)
  %35 = getelementptr inbounds nuw i8, ptr %1, i64 28
  call void @_ZNK6Assimp7Blender9Structure9ReadFieldILi0EsEEvRT0_PKcRKNS0_12FileDatabaseE(ptr noundef nonnull align 8 dereferenceable(120) %0, ptr noundef nonnull align 2 dereferenceable(2) %35, ptr noundef nonnull @.str.53, ptr noundef nonnull align 8 dereferenceable(232) %2)
  %36 = getelementptr inbounds nuw i8, ptr %1, i64 30
  call void @_ZNK6Assimp7Blender9Structure9ReadFieldILi0EsEEvRT0_PKcRKNS0_12FileDatabaseE(ptr noundef nonnull align 8 dereferenceable(120) %0, ptr noundef nonnull align 2 dereferenceable(2) %36, ptr noundef nonnull @.str.185, ptr noundef nonnull align 8 dereferenceable(232) %2)
  %37 = getelementptr inbounds nuw i8, ptr %2, i64 128
  %38 = load ptr, ptr %37, align 8
  %39 = getelementptr inbounds nuw i8, ptr %0, i64 104
  %40 = load i64, ptr %39, align 8
  %41 = getelementptr inbounds nuw i8, ptr %38, i64 24
  %42 = load ptr, ptr %41, align 8
  %43 = getelementptr inbounds i8, ptr %42, i64 %40
  store ptr %43, ptr %41, align 8
  %44 = getelementptr inbounds nuw i8, ptr %38, i64 40
  %45 = load ptr, ptr %44, align 8
  %46 = icmp ugt ptr %43, %45
  br i1 %46, label %47, label %_ZN6Assimp12StreamReaderILb1ELb1EE6IncPtrEl.exit

47:                                               ; preds = %_ZNSt12__shared_ptrIN6Assimp7Blender5ImageELN9__gnu_cxx12_Lock_policyE2EED2Ev.exit
  %48 = call ptr @__cxa_allocate_exception(i64 16) #23
  invoke void @_ZN17DeadlyImportErrorC2EPKc(ptr noundef nonnull align 8 dereferenceable(16) %48, ptr noundef nonnull @.str.307)
          to label %49 unwind label %50

49:                                               ; preds = %47
  call void @__cxa_throw(ptr nonnull %48, ptr nonnull @_ZTI17DeadlyImportError, ptr nonnull @_ZNSt13runtime_errorD2Ev) #24
  unreachable

common.resume:                                    ; preds = %52, %50
  %common.resume.op = phi { ptr, i32 } [ %51, %50 ], [ %53, %52 ]
  resume { ptr, i32 } %common.resume.op

50:                                               ; preds = %47
  %51 = landingpad { ptr, i32 }
          cleanup
  call void @__cxa_free_exception(ptr nonnull %48) #23
  br label %common.resume

_ZN6Assimp12StreamReaderILb1ELb1EE6IncPtrEl.exit: ; preds = %_ZNSt12__shared_ptrIN6Assimp7Blender5ImageELN9__gnu_cxx12_Lock_policyE2EED2Ev.exit
  ret void

52:                                               ; preds = %3
  %53 = landingpad { ptr, i32 }
          cleanup
  call void @_ZNSt12__shared_ptrIN6Assimp7Blender5ImageELN9__gnu_cxx12_Lock_policyE2EED2Ev(ptr noundef nonnull align 8 dereferenceable(16) %4) #23
  call void @llvm.lifetime.end.p0(i64 16, ptr nonnull %4) #23
  br label %common.resume
}